                                      1 ;--------------------------------------------------------
                                      2 ; File Created by SDCC : free open source ANSI-C Compiler
                                      3 ; Version 3.6.9 #10207 (Linux)
                                      4 ;--------------------------------------------------------
                                      5 	.module main
                                      6 	.optsdcc -mstm8
                                      7 	
                                      8 ;--------------------------------------------------------
                                      9 ; Public variables in this module
                                     10 ;--------------------------------------------------------
                                     11 	.globl _main
                                     12 	.globl _EXTI_PORTC_IRQHandler
                                     13 	.globl _TIM2_OVR_UIF
                                     14 	.globl _delay
                                     15 	.globl _DelayUs
                                     16 	.globl _resive_ir
                                     17 	.globl _DelayMs
                                     18 	.globl _IR_dec_init
                                     19 	.globl _GPIO_init
                                     20 	.globl _clk_init_HSI
                                     21 	.globl _clk_init_HSE
                                     22 	.globl _i
                                     23 	.globl _flag
                                     24 ;--------------------------------------------------------
                                     25 ; ram data
                                     26 ;--------------------------------------------------------
                                     27 	.area DATA
      000000                         28 _resive_ir_oldcode_1_20:
      000000                         29 	.ds 2
                                     30 ;--------------------------------------------------------
                                     31 ; ram data
                                     32 ;--------------------------------------------------------
                                     33 	.area INITIALIZED
      000000                         34 _flag::
      000000                         35 	.ds 2
      000002                         36 _i::
      000002                         37 	.ds 2
                                     38 ;--------------------------------------------------------
                                     39 ; Stack segment in internal ram 
                                     40 ;--------------------------------------------------------
                                     41 	.area	SSEG
      000000                         42 __start__stack:
      000000                         43 	.ds	1
                                     44 
                                     45 ;--------------------------------------------------------
                                     46 ; absolute external ram data
                                     47 ;--------------------------------------------------------
                                     48 	.area DABS (ABS)
                                     49 ;--------------------------------------------------------
                                     50 ; interrupt vector 
                                     51 ;--------------------------------------------------------
                                     52 	.area HOME
      000000                         53 __interrupt_vect:
      000000 82v00u00u00             54 	int s_GSINIT ; reset
      000004 82 00 00 00             55 	int 0x0000 ; trap
      000008 82 00 00 00             56 	int 0x0000 ; int0
      00000C 82 00 00 00             57 	int 0x0000 ; int1
      000010 82 00 00 00             58 	int 0x0000 ; int2
      000014 82 00 00 00             59 	int 0x0000 ; int3
      000018 82 00 00 00             60 	int 0x0000 ; int4
      00001C 82v00u01u82             61 	int _EXTI_PORTC_IRQHandler ; int5
      000020 82 00 00 00             62 	int 0x0000 ; int6
      000024 82 00 00 00             63 	int 0x0000 ; int7
      000028 82 00 00 00             64 	int 0x0000 ; int8
      00002C 82 00 00 00             65 	int 0x0000 ; int9
      000030 82 00 00 00             66 	int 0x0000 ; int10
      000034 82 00 00 00             67 	int 0x0000 ; int11
      000038 82 00 00 00             68 	int 0x0000 ; int12
      00003C 82v00u01u66             69 	int _TIM2_OVR_UIF ; int13
                                     70 ;--------------------------------------------------------
                                     71 ; global & static initialisations
                                     72 ;--------------------------------------------------------
                                     73 	.area HOME
                                     74 	.area GSINIT
                                     75 	.area GSFINAL
                                     76 	.area GSINIT
      000000                         77 __sdcc_gs_init_startup:
      000000                         78 __sdcc_init_data:
                                     79 ; stm8_genXINIT() start
      000000 AEr00r00         [ 2]   80 	ldw x, #l_DATA
      000003 27 07            [ 1]   81 	jreq	00002$
      000005                         82 00001$:
      000005 72 4FuFFuFF      [ 1]   83 	clr (s_DATA - 1, x)
      000009 5A               [ 2]   84 	decw x
      00000A 26 F9            [ 1]   85 	jrne	00001$
      00000C                         86 00002$:
      00000C AEr00r00         [ 2]   87 	ldw	x, #l_INITIALIZER
      00000F 27 09            [ 1]   88 	jreq	00004$
      000011                         89 00003$:
      000011 D6uFFuFF         [ 1]   90 	ld	a, (s_INITIALIZER - 1, x)
      000014 D7uFFuFF         [ 1]   91 	ld	(s_INITIALIZED - 1, x), a
      000017 5A               [ 2]   92 	decw	x
      000018 26 F7            [ 1]   93 	jrne	00003$
      00001A                         94 00004$:
                                     95 ; stm8_genXINIT() end
                                     96 ;	inc/IR_decoder.h: 39: static int oldcode = 0;
      00001A 5F               [ 1]   97 	clrw	x
      00001B CFu00u00         [ 2]   98 	ldw	_resive_ir_oldcode_1_20+0, x
                                     99 	.area GSFINAL
      000000 CCr00r40         [ 2]  100 	jp	__sdcc_program_startup
                                    101 ;--------------------------------------------------------
                                    102 ; Home
                                    103 ;--------------------------------------------------------
                                    104 	.area HOME
                                    105 	.area HOME
      000040                        106 __sdcc_program_startup:
      000040 CCr01r91         [ 2]  107 	jp	_main
                                    108 ;	return from main will return to caller
                                    109 ;--------------------------------------------------------
                                    110 ; code
                                    111 ;--------------------------------------------------------
                                    112 	.area CODE
                                    113 ;	inc/clk_init.h: 7: void clk_init_HSE(void){    
                                    114 ;	-----------------------------------------
                                    115 ;	 function clk_init_HSE
                                    116 ;	-----------------------------------------
      000000                        117 _clk_init_HSE:
                                    118 ;	inc/clk_init.h: 8: CLK_ECKR|=CLK_ECKR_HSEEN;            
      000000 72 10 50 C1      [ 1]  119 	bset	20673, #0
                                    120 ;	inc/clk_init.h: 9: CLK_SWCR|=CLK_SWCR_SWEN;               
      000004 72 12 50 C5      [ 1]  121 	bset	20677, #1
                                    122 ;	inc/clk_init.h: 10: while((CLK_ECKR & CLK_ECKR_HSERDY) == 0) {} 
      000008                        123 00101$:
      000008 C6 50 C1         [ 1]  124 	ld	a, 0x50c1
      00000B A5 02            [ 1]  125 	bcp	a, #0x02
      00000D 27 F9            [ 1]  126 	jreq	00101$
                                    127 ;	inc/clk_init.h: 11: CLK_CKDIVR = 0;                    
      00000F 35 00 50 C6      [ 1]  128 	mov	0x50c6+0, #0x00
                                    129 ;	inc/clk_init.h: 12: CLK_SWR = 0xB4;                    
      000013 35 B4 50 C4      [ 1]  130 	mov	0x50c4+0, #0xb4
                                    131 ;	inc/clk_init.h: 13: while ((CLK_SWCR & CLK_SWCR_SWIF) == 0){}
      000017                        132 00104$:
      000017 C6 50 C5         [ 1]  133 	ld	a, 0x50c5
      00001A A5 08            [ 1]  134 	bcp	a, #0x08
      00001C 27 F9            [ 1]  135 	jreq	00104$
                                    136 ;	inc/clk_init.h: 14: CLK_CSSR|=CLK_CSSR_CSSEN;
      00001E 72 10 50 C8      [ 1]  137 	bset	20680, #0
                                    138 ;	inc/clk_init.h: 16: }
      000022 81               [ 4]  139 	ret
                                    140 ;	inc/clk_init.h: 18: void clk_init_HSI()
                                    141 ;	-----------------------------------------
                                    142 ;	 function clk_init_HSI
                                    143 ;	-----------------------------------------
      000023                        144 _clk_init_HSI:
                                    145 ;	inc/clk_init.h: 20: CLK_ICKR = 0; // –°–±—Ä–∞—Å—ã–≤–∞–µ–º —Ä–µ–≥–∏—Å—Ç—Ä –≤–Ω—É—Ç—Ä–µ–Ω–Ω–µ–≥–æ —Ç–∞–∫—Ç–∏—Ä–æ–≤–∞–Ω–∏—è
      000023 35 00 50 C0      [ 1]  146 	mov	0x50c0+0, #0x00
                                    147 ;	inc/clk_init.h: 21: CLK_ICKR|=(1<<0); // –í–∫–ª—é—á–∞–µ–º –≤–Ω—É—Ç—Ä–µ–Ω–Ω–∏–π –≥–µ–Ω–µ—Ä–∞—Ç–æ—Ä HSI
      000027 72 10 50 C0      [ 1]  148 	bset	20672, #0
                                    149 ;	inc/clk_init.h: 22: CLK_ECKR = 0; // –û—Ç–∫–ª—é—á–∞–µ–º –≤–Ω–µ—à–Ω–∏–π –≥–µ–Ω–µ—Ä–∞—Ç–æ—Ä
      00002B 35 00 50 C1      [ 1]  150 	mov	0x50c1+0, #0x00
                                    151 ;	inc/clk_init.h: 23: while ((CLK_ICKR&(1<<1))== 0); // –ñ–¥—ë–º —Å—Ç–∞–±–∏–ª–∏–∑–∞—Ü–∏–∏ –≤–Ω—É—Ç—Ä–µ–Ω–Ω–µ–≥–æ –≥–µ–Ω–µ—Ä–∞—Ç–æ—Ä–∞
      00002F                        152 00101$:
      00002F C6 50 C0         [ 1]  153 	ld	a, 0x50c0
      000032 A5 02            [ 1]  154 	bcp	a, #0x02
      000034 27 F9            [ 1]  155 	jreq	00101$
                                    156 ;	inc/clk_init.h: 24: CLK_CKDIVR = 0; // –£—Å—Ç–∞–Ω–∞–≤–ª–∏–≤–∞–µ–º –º–∞–∫—Å–∏–º–∞–ª—å–Ω—É—é —á–∞—Å—Ç–æ—Ç—É
      000036 35 00 50 C6      [ 1]  157 	mov	0x50c6+0, #0x00
                                    158 ;	inc/clk_init.h: 25: CLK_CCOR = 0; // –í—ã–∫–ª—é—á–∞–µ–º CCO.
      00003A 35 00 50 C9      [ 1]  159 	mov	0x50c9+0, #0x00
                                    160 ;	inc/clk_init.h: 26: CLK_HSITRIMR = 0; // Turn off any HSIU trimming.
      00003E 35 00 50 CC      [ 1]  161 	mov	0x50cc+0, #0x00
                                    162 ;	inc/clk_init.h: 27: CLK_SWIMCCR = 0; // Set SWIM to run at clock / 2.
      000042 35 00 50 CD      [ 1]  163 	mov	0x50cd+0, #0x00
                                    164 ;	inc/clk_init.h: 28: CLK_SWR = 0xe1; // –ò—Å–ø–æ–ª—å–∑—É–µ–º HSI –≤ –∫–∞—á–µ—Å—Ç–≤–µ –∏—Å—Ç–æ—á–Ω–∏–∫–∞ —Ç–∞–∫—Ç–∏—Ä–æ–≤
      000046 35 E1 50 C4      [ 1]  165 	mov	0x50c4+0, #0xe1
                                    166 ;	inc/clk_init.h: 29: CLK_SWCR = 0; // –°–±—Ä–æ—Å —Ñ–ª–∞–≥–∞ –ø–µ—Ä–µ–∫–ª—é—á–µ–Ω–∏—è –≥–µ–Ω–µ—Ä–∞—Ç–æ—Ä–æ–≤
      00004A 35 00 50 C5      [ 1]  167 	mov	0x50c5+0, #0x00
                                    168 ;	inc/clk_init.h: 30: CLK_SWCR= CLK_SWCR_SWEN; // –í–∫–ª—é—á–∞–µ–º –ø–µ—Ä–µ–∫–ª—é—á–µ–Ω–∏–µ –Ω–∞ HSI
      00004E 35 02 50 C5      [ 1]  169 	mov	0x50c5+0, #0x02
                                    170 ;	inc/clk_init.h: 31: while ((CLK_SWCR&(1<<0)) != 0); // –ü–∞—É–∑–∞, –ø–æ–∫–∞ –ø—Ä–æ–∏–∑–æ–π–¥—ë—Ç –ø–µ—Ä–µ–∫–ª—é—á–µ–Ω–∏–µ(CLK_SWCR_SWBSY != 0)
      000052                        171 00104$:
      000052 C6 50 C5         [ 1]  172 	ld	a, 0x50c5
      000055 44               [ 1]  173 	srl	a
      000056 25 FA            [ 1]  174 	jrc	00104$
                                    175 ;	inc/clk_init.h: 33: }
      000058 81               [ 4]  176 	ret
                                    177 ;	inc/gpio_init.h: 1: void GPIO_init(void)
                                    178 ;	-----------------------------------------
                                    179 ;	 function GPIO_init
                                    180 ;	-----------------------------------------
      000059                        181 _GPIO_init:
                                    182 ;	inc/gpio_init.h: 4: PA_DDR = 0xFF;                                                        //_______PORT_IN
      000059 35 FF 50 02      [ 1]  183 	mov	0x5002+0, #0xff
                                    184 ;	inc/gpio_init.h: 5: PA_CR1 = 0xFF;                                                       //_______DDR________________CR1______________CR2___________FUNCTION  
      00005D 35 FF 50 03      [ 1]  185 	mov	0x5003+0, #0xff
                                    186 ;	inc/gpio_init.h: 6: PA_CR2 = 0x00;                                                      //_______0__________________0________________0_____________bez podtiyzhki,bez prerbIvanii 
      000061 35 00 50 04      [ 1]  187 	mov	0x5004+0, #0x00
                                    188 ;	inc/gpio_init.h: 8: PB_DDR = 0x00;                                                        //_______0__________________0________________1_____________bez podtiyzhki,c prerbIvaniem 
      000065 35 00 50 07      [ 1]  189 	mov	0x5007+0, #0x00
                                    190 ;	inc/gpio_init.h: 9: PB_CR1 = 0xff;                                                       //_______0__________________1________________1_____________c podtiyzhki,c prerbIvanii
      000069 35 FF 50 08      [ 1]  191 	mov	0x5008+0, #0xff
                                    192 ;	inc/gpio_init.h: 10: PB_CR2 = 0x00;                                                      //_______PORT_OUT
      00006D 35 00 50 09      [ 1]  193 	mov	0x5009+0, #0x00
                                    194 ;	inc/gpio_init.h: 12: PC_DDR = 0x00;                                                        //_______1__________________0________________0_____________otkritiy stok
      000071 35 00 50 0C      [ 1]  195 	mov	0x500c+0, #0x00
                                    196 ;	inc/gpio_init.h: 13: PC_CR1 = 0xFF;                                                       //_______1__________________1________________0_____________dvuhtakthiy vihod
      000075 35 FF 50 0D      [ 1]  197 	mov	0x500d+0, #0xff
                                    198 ;	inc/gpio_init.h: 14: PC_CR2 = 0xFF;                                                      //_______1__________________X________________1_____________skorost' do 10MHz
      000079 35 FF 50 0E      [ 1]  199 	mov	0x500e+0, #0xff
                                    200 ;	inc/gpio_init.h: 16: PD_DDR = 0xFF;   
      00007D 35 FF 50 11      [ 1]  201 	mov	0x5011+0, #0xff
                                    202 ;	inc/gpio_init.h: 17: PD_CR1 = 0xFF;  
      000081 35 FF 50 12      [ 1]  203 	mov	0x5012+0, #0xff
                                    204 ;	inc/gpio_init.h: 18: PD_CR2 = 0x00; 
      000085 35 00 50 13      [ 1]  205 	mov	0x5013+0, #0x00
                                    206 ;	inc/gpio_init.h: 20: PE_DDR = 0xFF;   
      000089 35 FF 50 16      [ 1]  207 	mov	0x5016+0, #0xff
                                    208 ;	inc/gpio_init.h: 21: PE_CR1 = 0xFF;  
      00008D 35 FF 50 17      [ 1]  209 	mov	0x5017+0, #0xff
                                    210 ;	inc/gpio_init.h: 22: PE_CR2 = 0x00; 
      000091 35 00 50 18      [ 1]  211 	mov	0x5018+0, #0x00
                                    212 ;	inc/gpio_init.h: 24: PF_DDR = 0xFF;   
      000095 35 FF 50 1B      [ 1]  213 	mov	0x501b+0, #0xff
                                    214 ;	inc/gpio_init.h: 25: PF_CR1 = 0xFF;  
      000099 35 FF 50 1C      [ 1]  215 	mov	0x501c+0, #0xff
                                    216 ;	inc/gpio_init.h: 26: PF_CR2 = 0x00; 
      00009D 35 00 50 1D      [ 1]  217 	mov	0x501d+0, #0x00
                                    218 ;	inc/gpio_init.h: 31: }
      0000A1 81               [ 4]  219 	ret
                                    220 ;	inc/IR_decoder.h: 9: void IR_dec_init()
                                    221 ;	-----------------------------------------
                                    222 ;	 function IR_dec_init
                                    223 ;	-----------------------------------------
      0000A2                        224 _IR_dec_init:
                                    225 ;	inc/IR_decoder.h: 11: PB_DDR&=~(1<<7);
      0000A2 72 1F 50 07      [ 1]  226 	bres	20487, #7
                                    227 ;	inc/IR_decoder.h: 12: }
      0000A6 81               [ 4]  228 	ret
                                    229 ;	inc/IR_decoder.h: 13: void DelayMs(int t)
                                    230 ;	-----------------------------------------
                                    231 ;	 function DelayMs
                                    232 ;	-----------------------------------------
      0000A7                        233 _DelayMs:
      0000A7 52 02            [ 2]  234 	sub	sp, #2
                                    235 ;	inc/IR_decoder.h: 16: for(i=0;i<t;i++)
      0000A9 5F               [ 1]  236 	clrw	x
      0000AA                        237 00107$:
      0000AA 13 05            [ 2]  238 	cpw	x, (0x05, sp)
      0000AC 2E 13            [ 1]  239 	jrsge	00109$
                                    240 ;	inc/IR_decoder.h: 18: for(s=0;s<5;s++)
      0000AE 90 AE 00 05      [ 2]  241 	ldw	y, #0x0005
      0000B2 17 01            [ 2]  242 	ldw	(0x01, sp), y
      0000B4                        243 00105$:
      0000B4 16 01            [ 2]  244 	ldw	y, (0x01, sp)
      0000B6 90 5A            [ 2]  245 	decw	y
      0000B8 17 01            [ 2]  246 	ldw	(0x01, sp), y
      0000BA 90 5D            [ 2]  247 	tnzw	y
      0000BC 26 F6            [ 1]  248 	jrne	00105$
                                    249 ;	inc/IR_decoder.h: 16: for(i=0;i<t;i++)
      0000BE 5C               [ 1]  250 	incw	x
      0000BF 20 E9            [ 2]  251 	jra	00107$
      0000C1                        252 00109$:
                                    253 ;	inc/IR_decoder.h: 22: }
      0000C1 5B 02            [ 2]  254 	addw	sp, #2
      0000C3 81               [ 4]  255 	ret
                                    256 ;	inc/IR_decoder.h: 23: static char delta_t(void){
                                    257 ;	-----------------------------------------
                                    258 ;	 function delta_t
                                    259 ;	-----------------------------------------
      0000C4                        260 _delta_t:
      0000C4 52 02            [ 2]  261 	sub	sp, #2
                                    262 ;	inc/IR_decoder.h: 26: while(is_0());  // Ê‰ÂÏ ÔÓˇ‚ÎÂÌËˇ 1 ‚ ÎËÌËË
      0000C6                        263 00101$:
      0000C6 C6 50 06         [ 1]  264 	ld	a, 0x5006
      0000C9 4D               [ 1]  265 	tnz	a
      0000CA 2A FA            [ 1]  266 	jrpl	00101$
      0000CC A6 0A            [ 1]  267 	ld	a, #0x0a
      0000CE 6B 02            [ 1]  268 	ld	(0x02, sp), a
      0000D0                        269 00108$:
                                    270 ;	inc/IR_decoder.h: 27: for( ; i; i--){              // Ê‰ÂÏ ÌÂ ·ÂÒÍÓÌÂ˜ÌÓ!!!
      0000D0 0D 02            [ 1]  271 	tnz	(0x02, sp)
      0000D2 27 13            [ 1]  272 	jreq	00106$
                                    273 ;	inc/IR_decoder.h: 28: DelayMs(100);         // ÍÛÒÓ˜Í‡ÏË ÔÓ 100 ÏÍÒ
      0000D4 4B 64            [ 1]  274 	push	#0x64
      0000D6 4B 00            [ 1]  275 	push	#0x00
      0000D8 CDr00rA7         [ 4]  276 	call	_DelayMs
      0000DB 5B 02            [ 2]  277 	addw	sp, #2
                                    278 ;	inc/IR_decoder.h: 30: if(is_0()) break;       // ÔÂÍ‡˘‡ÂÏ Ê‰‡Ú¸ ÔË 0 Ì‡ ‚ıÓ‰Â
      0000DD C6 50 06         [ 1]  279 	ld	a, 0x5006
      0000E0 4D               [ 1]  280 	tnz	a
      0000E1 2A 04            [ 1]  281 	jrpl	00106$
                                    282 ;	inc/IR_decoder.h: 27: for( ; i; i--){              // Ê‰ÂÏ ÌÂ ·ÂÒÍÓÌÂ˜ÌÓ!!!
      0000E3 0A 02            [ 1]  283 	dec	(0x02, sp)
      0000E5 20 E9            [ 2]  284 	jra	00108$
      0000E7                        285 00106$:
                                    286 ;	inc/IR_decoder.h: 32: return END_100us - i;        // ‚ÓÁ‚‡˘‡ÂÏ ËÌÚÂ‚‡Î
      0000E7 7B 02            [ 1]  287 	ld	a, (0x02, sp)
      0000E9 6B 01            [ 1]  288 	ld	(0x01, sp), a
      0000EB A6 0A            [ 1]  289 	ld	a, #0x0a
      0000ED 10 01            [ 1]  290 	sub	a, (0x01, sp)
                                    291 ;	inc/IR_decoder.h: 33: }
      0000EF 5B 02            [ 2]  292 	addw	sp, #2
      0000F1 81               [ 4]  293 	ret
                                    294 ;	inc/IR_decoder.h: 35: int resive_ir(void){
                                    295 ;	-----------------------------------------
                                    296 ;	 function resive_ir
                                    297 ;	-----------------------------------------
      0000F2                        298 _resive_ir:
      0000F2 52 03            [ 2]  299 	sub	sp, #3
                                    300 ;	inc/IR_decoder.h: 36: int code = 0;
      0000F4 5F               [ 1]  301 	clrw	x
                                    302 ;	inc/IR_decoder.h: 40: PD_ODR &= ~(1<<0);
      0000F5 72 11 50 0F      [ 1]  303 	bres	20495, #0
                                    304 ;	inc/IR_decoder.h: 41: while(is_1());// ÒËÌıÓÌËÁ‡ˆËˇ Ò Ì‡˜‡ÎÓÏ ËÏÔÛÎ¸Ò‡
      0000F9                        305 00101$:
      0000F9 C6 50 06         [ 1]  306 	ld	a, 0x5006
      0000FC 4D               [ 1]  307 	tnz	a
      0000FD 2B FA            [ 1]  308 	jrmi	00101$
                                    309 ;	inc/IR_decoder.h: 43: for(i = MAX_BIT_CNT; i; i--){
      0000FF A6 24            [ 1]  310 	ld	a, #0x24
      000101 6B 03            [ 1]  311 	ld	(0x03, sp), a
      000103                        312 00112$:
                                    313 ;	inc/IR_decoder.h: 44: code =code<< 1;                  // „ÓÚÓ‚ËÏ Ó˜ÂÂ‰ÌÓÂ ÏÂÒÚÓ ·ËÚ‡
      000103 58               [ 2]  314 	sllw	x
                                    315 ;	inc/IR_decoder.h: 45: delta = delta_t();  // ËÁÏÂˇÂÏ ‰ÎËÚÂÎ¸ÌÓÒÚ¸ 1 ‚ ÎËÌËË
      000104 89               [ 2]  316 	pushw	x
      000105 CDr00rC4         [ 4]  317 	call	_delta_t
      000108 85               [ 2]  318 	popw	x
      000109 90 5F            [ 1]  319 	clrw	y
      00010B 90 97            [ 1]  320 	ld	yl, a
      00010D 17 01            [ 2]  321 	ldw	(0x01, sp), y
                                    322 ;	inc/IR_decoder.h: 46: if((delta >= END_100us)) break;                   // ÂÒÎË ÒÎË¯ÍÓÏ ‰ÓÎ„Ó - ÍÓÌÂˆ ÔËÂÏ‡            
      00010F 89               [ 2]  323 	pushw	x
      000110 1E 03            [ 2]  324 	ldw	x, (0x03, sp)
      000112 A3 00 0A         [ 2]  325 	cpw	x, #0x000a
      000115 85               [ 2]  326 	popw	x
      000116 2E 14            [ 1]  327 	jrsge	00108$
                                    328 ;	inc/IR_decoder.h: 47: if(delta > LOG0_100us) code |= 1;             // ÂÒÎË ÔËÂÏ 1 - Á‡ÌÓÒËÏ ‚ ·ËÚ 1      
      000118 89               [ 2]  329 	pushw	x
      000119 1E 03            [ 2]  330 	ldw	x, (0x03, sp)
      00011B A3 00 01         [ 2]  331 	cpw	x, #0x0001
      00011E 85               [ 2]  332 	popw	x
      00011F 2D 03            [ 1]  333 	jrsle	00113$
      000121 54               [ 2]  334 	srlw	x
      000122 99               [ 1]  335 	scf
      000123 59               [ 2]  336 	rlcw	x
      000124                        337 00113$:
                                    338 ;	inc/IR_decoder.h: 43: for(i = MAX_BIT_CNT; i; i--){
      000124 7B 03            [ 1]  339 	ld	a, (0x03, sp)
      000126 4A               [ 1]  340 	dec	a
      000127 6B 03            [ 1]  341 	ld	(0x03, sp), a
      000129 4D               [ 1]  342 	tnz	a
      00012A 26 D7            [ 1]  343 	jrne	00112$
      00012C                        344 00108$:
                                    345 ;	inc/IR_decoder.h: 49: if((code > 0) && (code < 5)) return oldcode;      
      00012C A3 00 00         [ 2]  346 	cpw	x, #0x0000
      00012F 2D 0A            [ 1]  347 	jrsle	00110$
      000131 A3 00 05         [ 2]  348 	cpw	x, #0x0005
      000134 2E 05            [ 1]  349 	jrsge	00110$
      000136 CEu00u00         [ 2]  350 	ldw	x, _resive_ir_oldcode_1_20+0
      000139 20 03            [ 2]  351 	jra	00114$
      00013B                        352 00110$:
                                    353 ;	inc/IR_decoder.h: 50: oldcode = code;      
      00013B CFu00u00         [ 2]  354 	ldw	_resive_ir_oldcode_1_20+0, x
                                    355 ;	inc/IR_decoder.h: 51: return code;                       // ‚ÓÁ‚‡˘‡ÂÏ, ˜ÚÓ Ì‡ÍÓÔËÎÓÒ¸
      00013E                        356 00114$:
                                    357 ;	inc/IR_decoder.h: 52: } 
      00013E 5B 03            [ 2]  358 	addw	sp, #3
      000140 81               [ 4]  359 	ret
                                    360 ;	main.c: 11: void DelayUs(unsigned int msec)
                                    361 ;	-----------------------------------------
                                    362 ;	 function DelayUs
                                    363 ;	-----------------------------------------
      000141                        364 _DelayUs:
                                    365 ;	main.c: 14: for(x=0; x<=msec;x++);
      000141 5F               [ 1]  366 	clrw	x
      000142                        367 00103$:
      000142 5C               [ 1]  368 	incw	x
      000143 13 03            [ 2]  369 	cpw	x, (0x03, sp)
      000145 23 FB            [ 2]  370 	jrule	00103$
                                    371 ;	main.c: 15: }
      000147 81               [ 4]  372 	ret
                                    373 ;	main.c: 17: void delay(int sec)
                                    374 ;	-----------------------------------------
                                    375 ;	 function delay
                                    376 ;	-----------------------------------------
      000148                        377 _delay:
                                    378 ;	main.c: 20: for(t=0;t<=sec;t++)
      000148 5F               [ 1]  379 	clrw	x
      000149                        380 00103$:
      000149 13 03            [ 2]  381 	cpw	x, (0x03, sp)
      00014B 2D 01            [ 1]  382 	jrsle	00116$
      00014D 81               [ 4]  383 	ret
      00014E                        384 00116$:
                                    385 ;	main.c: 22: DelayMs(25000);
      00014E 89               [ 2]  386 	pushw	x
      00014F 4B A8            [ 1]  387 	push	#0xa8
      000151 4B 61            [ 1]  388 	push	#0x61
      000153 CDr00rA7         [ 4]  389 	call	_DelayMs
      000156 5B 02            [ 2]  390 	addw	sp, #2
      000158 4B A8            [ 1]  391 	push	#0xa8
      00015A 4B 61            [ 1]  392 	push	#0x61
      00015C CDr00rA7         [ 4]  393 	call	_DelayMs
      00015F 5B 02            [ 2]  394 	addw	sp, #2
      000161 85               [ 2]  395 	popw	x
                                    396 ;	main.c: 20: for(t=0;t<=sec;t++)
      000162 5C               [ 1]  397 	incw	x
      000163 20 E4            [ 2]  398 	jra	00103$
                                    399 ;	main.c: 25: }
      000165 81               [ 4]  400 	ret
                                    401 ;	main.c: 27: INTERRUPT_HANDLER( TIM2_OVR_UIF, 13)           //–æ–±—Ä–∞–±–æ—Ç—á–∏–∫ –ø—Ä–µ—Ä—ã–≤–∞–Ω–∏—è –ø–æ –ø–µ—Ä–µ–ø–æ–ª–Ω–µ–Ω–∏—é —Ç–∞–π–º–µ—Ä–∞ 
                                    402 ;	-----------------------------------------
                                    403 ;	 function TIM2_OVR_UIF
                                    404 ;	-----------------------------------------
      000166                        405 _TIM2_OVR_UIF:
                                    406 ;	main.c: 29: if(flag==1) UPR_PIN_ON;                      
      000166 CEu00u00         [ 2]  407 	ldw	x, _flag+0
      000169 5A               [ 2]  408 	decw	x
      00016A 26 04            [ 1]  409 	jrne	00102$
      00016C 72 14 50 0F      [ 1]  410 	bset	20495, #2
      000170                        411 00102$:
                                    412 ;	main.c: 30: TIM2_SR1&=~(1<<0);
      000170 72 11 53 04      [ 1]  413 	bres	21252, #0
                                    414 ;	main.c: 31: DelayUs(200);
      000174 4B C8            [ 1]  415 	push	#0xc8
      000176 4B 00            [ 1]  416 	push	#0x00
      000178 CDr01r41         [ 4]  417 	call	_DelayUs
      00017B 5B 02            [ 2]  418 	addw	sp, #2
                                    419 ;	main.c: 32: UPR_PIN_OFF; 
      00017D 72 15 50 0F      [ 1]  420 	bres	20495, #2
                                    421 ;	main.c: 33: }
      000181 80               [11]  422 	iret
                                    423 ;	main.c: 35: INTERRUPT_HANDLER( EXTI_PORTC_IRQHandler, 5) //–æ–±—Ä–∞–±–æ—Ç—á–∏–∫ –ø—Ä–µ—Ä—ã–≤–∞–Ω–∏—è –¥–∞—Ç—á–∏–∫–∞ –ø–µ—Ä–µ—Ö–æ–¥–∞ –Ω—É–ª—è
                                    424 ;	-----------------------------------------
                                    425 ;	 function EXTI_PORTC_IRQHandler
                                    426 ;	-----------------------------------------
      000182                        427 _EXTI_PORTC_IRQHandler:
                                    428 ;	main.c: 38: TIM2_ARRH=i;           
      000182 C6u00u03         [ 1]  429 	ld	a, _i+1
      000185 C7 53 0F         [ 1]  430 	ld	0x530f, a
                                    431 ;	main.c: 39: TIM2_ARRL=0x00; 
      000188 35 00 53 10      [ 1]  432 	mov	0x5310+0, #0x00
                                    433 ;	main.c: 40: TIM2_CR1|=(1<<0);                       //CEN-–∑–∞–ø—É—Å–∫–∞–µ–º —Ç–∞–π–º–µ—Ä
      00018C 72 10 53 00      [ 1]  434 	bset	21248, #0
                                    435 ;	main.c: 41: }
      000190 80               [11]  436 	iret
                                    437 ;	main.c: 44: int main( void )
                                    438 ;	-----------------------------------------
                                    439 ;	 function main
                                    440 ;	-----------------------------------------
      000191                        441 _main:
                                    442 ;	main.c: 48: clk_init_HSE();                                   //–∏–Ω–∏—Ü–∏–∏—Ä—É–µ–º –≤—Å–µ —á—Ç–æ –Ω—É–∂–Ω–æ
      000191 CDr00r00         [ 4]  443 	call	_clk_init_HSE
                                    444 ;	main.c: 49: __asm__("sim");
      000194 9B               [ 1]  445 	sim
                                    446 ;	main.c: 50: GPIO_init();
      000195 CDr00r59         [ 4]  447 	call	_GPIO_init
                                    448 ;	main.c: 52: EXTI_CR1|=(1<<4); //PCIS=01
      000198 72 18 50 A0      [ 1]  449 	bset	20640, #4
                                    450 ;	main.c: 54: TIM2_PSCR=0x01;
      00019C 35 01 53 0E      [ 1]  451 	mov	0x530e+0, #0x01
                                    452 ;	main.c: 55: TIM2_ARRH=0xd6;           
      0001A0 35 D6 53 0F      [ 1]  453 	mov	0x530f+0, #0xd6
                                    454 ;	main.c: 56: TIM2_ARRL=0x00;
      0001A4 35 00 53 10      [ 1]  455 	mov	0x5310+0, #0x00
                                    456 ;	main.c: 57: TIM2_CR1|=(1<<3); //OPM
      0001A8 72 16 53 00      [ 1]  457 	bset	21248, #3
                                    458 ;	main.c: 58: TIM2_IER|=(1<<0); //UIE
      0001AC C6 53 03         [ 1]  459 	ld	a, 0x5303
      0001AF AA 01            [ 1]  460 	or	a, #0x01
      0001B1 C7 53 03         [ 1]  461 	ld	0x5303, a
                                    462 ;	main.c: 60: IR_dec_init();
      0001B4 CDr00rA2         [ 4]  463 	call	_IR_dec_init
                                    464 ;	main.c: 61: __asm__("rim");
      0001B7 9A               [ 1]  465 	rim
                                    466 ;	main.c: 63: delay(5);                                         //—ç—Ç–æ—Ç –∫—É—Å–æ–∫ –∫–æ–¥–∞-–ø–ª–∞–≤–Ω–æ–µ –≤–∫–ª—é—á–µ–Ω–∏–µ —Å–≤–µ—Ç–∞
      0001B8 4B 05            [ 1]  467 	push	#0x05
      0001BA 4B 00            [ 1]  468 	push	#0x00
      0001BC CDr01r48         [ 4]  469 	call	_delay
      0001BF 5B 02            [ 2]  470 	addw	sp, #2
                                    471 ;	main.c: 64: for(i=0xd6;i>0x6b;i--)
      0001C1 AE 00 D6         [ 2]  472 	ldw	x, #0x00d6
      0001C4 CFu00u02         [ 2]  473 	ldw	_i+0, x
      0001C7                        474 00119$:
                                    475 ;	main.c: 66: if(i<0xd2)flag=1;
      0001C7 CEu00u02         [ 2]  476 	ldw	x, _i+0
      0001CA A3 00 D2         [ 2]  477 	cpw	x, #0x00d2
      0001CD 2E 06            [ 1]  478 	jrsge	00102$
      0001CF AE 00 01         [ 2]  479 	ldw	x, #0x0001
      0001D2 CFu00u00         [ 2]  480 	ldw	_flag+0, x
      0001D5                        481 00102$:
                                    482 ;	main.c: 67: DelayUs(30000);
      0001D5 4B 30            [ 1]  483 	push	#0x30
      0001D7 4B 75            [ 1]  484 	push	#0x75
      0001D9 CDr01r41         [ 4]  485 	call	_DelayUs
      0001DC 5B 02            [ 2]  486 	addw	sp, #2
                                    487 ;	main.c: 64: for(i=0xd6;i>0x6b;i--)
      0001DE CEu00u02         [ 2]  488 	ldw	x, _i+0
      0001E1 5A               [ 2]  489 	decw	x
      0001E2 CFu00u02         [ 2]  490 	ldw	_i+0, x
      0001E5 A3 00 6B         [ 2]  491 	cpw	x, #0x006b
      0001E8 2C DD            [ 1]  492 	jrsgt	00119$
                                    493 ;	main.c: 69: i=0x6b;
      0001EA AE 00 6B         [ 2]  494 	ldw	x, #0x006b
      0001ED CFu00u02         [ 2]  495 	ldw	_i+0, x
                                    496 ;	main.c: 71: while(1)
      0001F0                        497 00117$:
                                    498 ;	main.c: 75: code =resive_ir();
      0001F0 CDr00rF2         [ 4]  499 	call	_resive_ir
      0001F3 51               [ 1]  500 	exgw	x, y
                                    501 ;	main.c: 77: if(code==UMENSHENIE)
      0001F4 90 A3 0C F2      [ 2]  502 	cpw	y, #0x0cf2
      0001F8 26 1F            [ 1]  503 	jrne	00109$
                                    504 ;	main.c: 79: i=i+2;                     //—É–≤–µ–ª–∏—á–µ–≤–∞–µ–º –∑–Ω–∞—á–µ–Ω–∏–µ –¥–ª—è —Ä–µ–≥–∏—Å—Ç—Ä–∞ –ø—Ä–µ–¥–≤–∞—Ä–∏—Ç–µ–ª—å–Ω–æ–π –∑–∞–≥—Ä—É–∑–∫–∏
      0001FA CEu00u02         [ 2]  505 	ldw	x, _i+0
      0001FD 5C               [ 1]  506 	incw	x
      0001FE 5C               [ 1]  507 	incw	x
                                    508 ;	main.c: 80: if(i>=0xd4)flag=0;         //–µ—Å–ª–∏ —Å–≤–µ—Ç –≤—ã–∫–ª—é—á–µ–Ω —Ç–æ –∏ —É–ø—Ä–æ–≤–ª–µ–Ω–∏–µ –Ω–µ –Ω—É–∂–Ω–æ
      0001FF CFu00u02         [ 2]  509 	ldw	_i+0, x
      000202 A3 00 D4         [ 2]  510 	cpw	x, #0x00d4
      000205 2F 04            [ 1]  511 	jrslt	00105$
      000207 5F               [ 1]  512 	clrw	x
      000208 CFu00u00         [ 2]  513 	ldw	_flag+0, x
      00020B                        514 00105$:
                                    515 ;	main.c: 81: if(i>=0xd6)i=0xd6;         //–µ—Å–ª–∏ –¥–∞–ª—å—à–µ —É–≤–µ–ª–∏—á–µ–≤–∞—Ç—å —Ç–æ –ª–∞–º–ø–∞ –±—É–¥–µ—Ç –º–∞—Ä–≥–∞—Ç—å —Ç.–∫. –º—ã –∑–∞–ª–µ–∑–µ–º –≤ –¥—Ä—É–≥–æ–π –ø–æ–ª—É–ø–µ—Ä–∏–æ–¥
      00020B CEu00u02         [ 2]  516 	ldw	x, _i+0
      00020E A3 00 D6         [ 2]  517 	cpw	x, #0x00d6
      000211 2F 06            [ 1]  518 	jrslt	00109$
      000213 AE 00 D6         [ 2]  519 	ldw	x, #0x00d6
      000216 CFu00u02         [ 2]  520 	ldw	_i+0, x
      000219                        521 00109$:
                                    522 ;	main.c: 84: if(code==UVILCHENIE)        //—Ç–æ–∂–µ —Å–∞–º–æ–µ —Ç–æ–ª—å–∫–æ –Ω–∞ –æ–±–æ—Ä–æ—Ç
      000219 90 A3 0D F2      [ 2]  523 	cpw	y, #0x0df2
      00021D 26 D1            [ 1]  524 	jrne	00117$
                                    525 ;	main.c: 87: i=i-2;
      00021F CEu00u02         [ 2]  526 	ldw	x, _i+0
      000222 5A               [ 2]  527 	decw	x
      000223 5A               [ 2]  528 	decw	x
                                    529 ;	main.c: 88: if(i<0xd6)flag=1;
      000224 CFu00u02         [ 2]  530 	ldw	_i+0, x
      000227 A3 00 D6         [ 2]  531 	cpw	x, #0x00d6
      00022A 2E 06            [ 1]  532 	jrsge	00111$
      00022C AE 00 01         [ 2]  533 	ldw	x, #0x0001
      00022F CFu00u00         [ 2]  534 	ldw	_flag+0, x
      000232                        535 00111$:
                                    536 ;	main.c: 89: if(i<=0x06)i=0x06;
      000232 CEu00u02         [ 2]  537 	ldw	x, _i+0
      000235 A3 00 06         [ 2]  538 	cpw	x, #0x0006
      000238 2C B6            [ 1]  539 	jrsgt	00117$
      00023A AE 00 06         [ 2]  540 	ldw	x, #0x0006
      00023D CFu00u02         [ 2]  541 	ldw	_i+0, x
      000240 20 AE            [ 2]  542 	jra	00117$
                                    543 ;	main.c: 97: }
      000242 81               [ 4]  544 	ret
                                    545 	.area CODE
                                    546 	.area INITIALIZER
      000000                        547 __xinit__flag:
      000000 00 00                  548 	.dw #0x0000
      000002                        549 __xinit__i:
      000002 00 00                  550 	.dw #0x0000
                                    551 	.area CABS (ABS)
